; Function Attrs: mustprogress uwtable
define internal fastcc void @_ZN6google8protobuf8compiler4javaL10EscapeKdocERKNSt7__cxx1112basic_stringIcSt11char_traitsIcESaIcEEE(ptr noalias nonnull align 8 %agg.result, ptr noundef nonnull align 8 dereferenceable(32) %input) unnamed_addr #3 personality ptr @__gxx_personality_v0 {
entry:
  tail call void @_ZNSt7__cxx1112basic_stringIcSt11char_traitsIcESaIcEEC1Ev(ptr noundef nonnull align 8 dereferenceable(32) %agg.result) #22
  %call = tail call noundef i64 @_ZNKSt7__cxx1112basic_stringIcSt11char_traitsIcESaIcEE4sizeEv(ptr noundef nonnull align 8 dereferenceable(32) %input) #22
  %mul = shl i64 %call, 1
  invoke void @_ZNSt7__cxx1112basic_stringIcSt11char_traitsIcESaIcEE7reserveEm(ptr noundef nonnull align 8 dereferenceable(32) %agg.result, i64 noundef %mul)
          to label %invoke.cont unwind label %lpad.loopexit.split-lp

invoke.cont:                                      ; preds = %entry
  %call1 = tail call ptr @_ZNKSt7__cxx1112basic_stringIcSt11char_traitsIcESaIcEE5beginEv(ptr noundef nonnull align 8 dereferenceable(32) %input) #22
  %call2 = tail call ptr @_ZNKSt7__cxx1112basic_stringIcSt11char_traitsIcESaIcEE3endEv(ptr noundef nonnull align 8 dereferenceable(32) %input) #22
  %cmp.i.not12 = icmp eq ptr %call1, %call2
  br i1 %cmp.i.not12, label %nrvo.skipdtor, label %for.body

for.body:                                         ; preds = %invoke.cont, %sw.epilog
  %prev.014 = phi i8 [ %0, %sw.epilog ], [ 97, %invoke.cont ]
  %__begin3.sroa.0.013 = phi ptr [ %incdec.ptr.i, %sw.epilog ], [ %call1, %invoke.cont ]
  %0 = load i8, ptr %__begin3.sroa.0.013, align 1
  switch i8 %0, label %if.else.invoke [
    i8 42, label %sw.bb
    i8 47, label %sw.bb10
  ]

lpad.loopexit:                                    ; preds = %if.else.invoke, %if.then.invoke
  %lpad.loopexit10 = landingpad { ptr, i32 }
          cleanup
  br label %lpad

lpad.loopexit.split-lp:                           ; preds = %entry
  %lpad.loopexit.split-lp11 = landingpad { ptr, i32 }
          cleanup
  br label %lpad

lpad:                                             ; preds = %lpad.loopexit.split-lp, %lpad.loopexit
  %lpad.phi = phi { ptr, i32 } [ %lpad.loopexit10, %lpad.loopexit ], [ %lpad.loopexit.split-lp11, %lpad.loopexit.split-lp ]
  tail call void @_ZNSt7__cxx1112basic_stringIcSt11char_traitsIcESaIcEED1Ev(ptr noundef nonnull align 8 dereferenceable(32) %agg.result) #22
  resume { ptr, i32 } %lpad.phi

sw.bb:                                            ; preds = %for.body
  %cmp = icmp eq i8 %prev.014, 47
  br i1 %cmp, label %if.then.invoke, label %if.else.invoke

if.then.invoke:                                   ; preds = %sw.bb10, %sw.bb
  %1 = phi ptr [ @.str, %sw.bb ], [ @.str.1, %sw.bb10 ]
  %2 = invoke noundef nonnull align 8 dereferenceable(32) ptr @_ZNSt7__cxx1112basic_stringIcSt11char_traitsIcESaIcEE6appendEPKc(ptr noundef nonnull align 8 dereferenceable(32) %agg.result, ptr noundef nonnull %1)
          to label %sw.epilog unwind label %lpad.loopexit

if.else.invoke:                                   ; preds = %for.body, %sw.bb10, %sw.bb
  %3 = phi i8 [ 42, %sw.bb ], [ 47, %sw.bb10 ], [ %0, %for.body ]
  invoke void @_ZNSt7__cxx1112basic_stringIcSt11char_traitsIcESaIcEE9push_backEc(ptr noundef nonnull align 8 dereferenceable(32) %agg.result, i8 noundef signext %3)
          to label %sw.epilog unwind label %lpad.loopexit

sw.bb10:                                          ; preds = %for.body
  %cmp12 = icmp eq i8 %prev.014, 42
  br i1 %cmp12, label %if.then.invoke, label %if.else.invoke

sw.epilog:                                        ; preds = %if.else.invoke, %if.then.invoke
  %incdec.ptr.i = getelementptr inbounds nuw i8, ptr %__begin3.sroa.0.013, i64 1
  %cmp.i.not = icmp eq ptr %incdec.ptr.i, %call2
  br i1 %cmp.i.not, label %nrvo.skipdtor, label %for.body

nrvo.skipdtor:                                    ; preds = %sw.epilog, %invoke.cont
  ret void
}